target datalayout = "e-m:e-p270:32:32-p271:32:32-p272:64:64-i64:64-i128:128-f80:128-n8:16:32:64-S128"
target triple = "x86_64-pc-linux-gnu"

%struct._et_dissector_info = type { ptr }
%struct._packet_info = type { ptr, ptr, i32, i32, %struct.nstime_t, %struct.nstime_t, %struct.nstime_t, i8, ptr, ptr, ptr, ptr, %struct._address, %struct._address, %struct._address, %struct._address, %struct._address, %struct._address, i32, ptr, i8, [3 x i8], %struct.anon, i32, i32, i32, i32, ptr, i8, ptr, ptr, i16, i16, i32, i32, i16, i32, i32, ptr, ptr, ptr, i8, i8, i16, i16, i16, i32, i16, i16, ptr, ptr, ptr, ptr, ptr, i32, i32 }
%struct.nstime_t = type { i64, i32 }
%struct._address = type { i32, i32, ptr, ptr }
%struct.anon = type { i8, [3 x i8] }
%struct._conversation_hash_t = type { ptr, ptr, ptr, i32 }
%struct._ws_ip4 = type { i8, i8, i32, i16, i16, i8, i8, i16, %struct._address, %struct._address, i32 }
%struct._frame_data = type <{ i32, i32, i32, i32, i32, [4 x i8], i64, ptr, ptr, ptr, i8, i16, [5 x i8], %struct.nstime_t, %struct.nstime_t, i32, i32 }>

@ip_conv_agg_flag = internal global i8 0, align 1
@ip_endpoint_dissector_info = internal global %struct._et_dissector_info { ptr @ip_endpoint_get_filter_type }, align 8

; Function Attrs: null_pointer_is_valid sspstrong uwtable
define internal i32 @ip_endpoint_packet(ptr noundef %0, ptr noundef %1, ptr noundef %2, ptr noundef %3, i32 noundef %4) #1 {
  %6 = alloca ptr, align 8
  %7 = alloca ptr, align 8
  %8 = alloca ptr, align 8
  %9 = alloca ptr, align 8
  %10 = alloca i32, align 4
  %11 = alloca ptr, align 8
  %12 = alloca ptr, align 8
  store ptr %0, ptr %6, align 8
  store ptr %1, ptr %7, align 8
  store ptr %2, ptr %8, align 8
  store ptr %3, ptr %9, align 8
  store i32 %4, ptr %10, align 4
  call void @llvm.lifetime.start.p0(i64 8, ptr %11) #12
  %13 = load ptr, ptr %6, align 8
  store ptr %13, ptr %11, align 8
  %14 = load i32, ptr %10, align 4
  %15 = load ptr, ptr %11, align 8
  %16 = getelementptr inbounds nuw %struct._conversation_hash_t, ptr %15, i32 0, i32 3
  store i32 %14, ptr %16, align 8
  call void @llvm.lifetime.start.p0(i64 8, ptr %12) #12
  %17 = load ptr, ptr %9, align 8
  store ptr %17, ptr %12, align 8
  %18 = load i8, ptr @ip_conv_agg_flag, align 1, !range !6, !noundef !7
  %19 = trunc i8 %18 to i1
  br i1 %19, label %20, label %37

20:                                               ; preds = %5
  %21 = load ptr, ptr %11, align 8
  %22 = load ptr, ptr %12, align 8
  %23 = getelementptr inbounds nuw %struct._ws_ip4, ptr %22, i32 0, i32 8
  %24 = load ptr, ptr %7, align 8
  %25 = getelementptr inbounds nuw %struct._packet_info, ptr %24, i32 0, i32 8
  %26 = load ptr, ptr %25, align 8
  %27 = getelementptr inbounds nuw %struct._frame_data, ptr %26, i32 0, i32 2
  %28 = load i32, ptr %27, align 8
  call void @add_endpoint_table_data_ipv4_subnet(ptr noundef %21, ptr noundef %23, i32 noundef 0, i1 noundef zeroext true, i32 noundef 1, i32 noundef %28, ptr noundef @ip_endpoint_dissector_info, i32 noundef 0)
  %29 = load ptr, ptr %11, align 8
  %30 = load ptr, ptr %12, align 8
  %31 = getelementptr inbounds nuw %struct._ws_ip4, ptr %30, i32 0, i32 9
  %32 = load ptr, ptr %7, align 8
  %33 = getelementptr inbounds nuw %struct._packet_info, ptr %32, i32 0, i32 8
  %34 = load ptr, ptr %33, align 8
  %35 = getelementptr inbounds nuw %struct._frame_data, ptr %34, i32 0, i32 2
  %36 = load i32, ptr %35, align 8
  call void @add_endpoint_table_data_ipv4_subnet(ptr noundef %29, ptr noundef %31, i32 noundef 0, i1 noundef zeroext false, i32 noundef 1, i32 noundef %36, ptr noundef @ip_endpoint_dissector_info, i32 noundef 0)
  br label %54

37:                                               ; preds = %5
  %38 = load ptr, ptr %11, align 8
  %39 = load ptr, ptr %12, align 8
  %40 = getelementptr inbounds nuw %struct._ws_ip4, ptr %39, i32 0, i32 8
  %41 = load ptr, ptr %7, align 8
  %42 = getelementptr inbounds nuw %struct._packet_info, ptr %41, i32 0, i32 8
  %43 = load ptr, ptr %42, align 8
  %44 = getelementptr inbounds nuw %struct._frame_data, ptr %43, i32 0, i32 2
  %45 = load i32, ptr %44, align 8
  call void @add_endpoint_table_data(ptr noundef %38, ptr noundef %40, i32 noundef 0, i1 noundef zeroext true, i32 noundef 1, i32 noundef %45, ptr noundef @ip_endpoint_dissector_info, i32 noundef 0)
  %46 = load ptr, ptr %11, align 8
  %47 = load ptr, ptr %12, align 8
  %48 = getelementptr inbounds nuw %struct._ws_ip4, ptr %47, i32 0, i32 9
  %49 = load ptr, ptr %7, align 8
  %50 = getelementptr inbounds nuw %struct._packet_info, ptr %49, i32 0, i32 8
  %51 = load ptr, ptr %50, align 8
  %52 = getelementptr inbounds nuw %struct._frame_data, ptr %51, i32 0, i32 2
  %53 = load i32, ptr %52, align 8
  call void @add_endpoint_table_data(ptr noundef %46, ptr noundef %48, i32 noundef 0, i1 noundef zeroext false, i32 noundef 1, i32 noundef %53, ptr noundef @ip_endpoint_dissector_info, i32 noundef 0)
  br label %54

54:                                               ; preds = %37, %20
  call void @llvm.lifetime.end.p0(i64 8, ptr %12) #12
  call void @llvm.lifetime.end.p0(i64 8, ptr %11) #12
  ret i32 1
}