; Function Attrs: null_pointer_is_valid sspstrong uwtable
define internal noundef i32 @ip_endpoint_packet(ptr noundef initializes((24, 28)) %0, ptr noundef readonly captures(none) %1, ptr readnone captures(none) %2, ptr noundef %3, i32 noundef %4) #1 {
  %6 = getelementptr inbounds nuw i8, ptr %0, i64 24
  store i32 %4, ptr %6, align 8
  %7 = load i8, ptr @ip_conv_agg_flag, align 1, !range !6, !noundef !7
  %8 = trunc nuw i8 %7 to i1
  %9 = getelementptr inbounds nuw i8, ptr %3, i64 16
  %10 = getelementptr inbounds nuw i8, ptr %1, i64 80
  %11 = load ptr, ptr %10, align 8
  %12 = getelementptr inbounds nuw i8, ptr %11, i64 8
  %13 = load i32, ptr %12, align 8
  %14 = getelementptr inbounds nuw i8, ptr %3, i64 40
  br i1 %8, label %15, label %19

15:                                               ; preds = %5
  tail call void @add_endpoint_table_data_ipv4_subnet(ptr noundef %0, ptr noundef nonnull %9, i32 noundef 0, i1 noundef zeroext true, i32 noundef 1, i32 noundef %13, ptr noundef nonnull @ip_endpoint_dissector_info, i32 noundef 0)
  %16 = load ptr, ptr %10, align 8
  %17 = getelementptr inbounds nuw i8, ptr %16, i64 8
  %18 = load i32, ptr %17, align 8
  tail call void @add_endpoint_table_data_ipv4_subnet(ptr noundef %0, ptr noundef nonnull %14, i32 noundef 0, i1 noundef zeroext false, i32 noundef 1, i32 noundef %18, ptr noundef nonnull @ip_endpoint_dissector_info, i32 noundef 0)
  br label %23

19:                                               ; preds = %5
  tail call void @add_endpoint_table_data(ptr noundef %0, ptr noundef nonnull %9, i32 noundef 0, i1 noundef zeroext true, i32 noundef 1, i32 noundef %13, ptr noundef nonnull @ip_endpoint_dissector_info, i32 noundef 0)
  %20 = load ptr, ptr %10, align 8
  %21 = getelementptr inbounds nuw i8, ptr %20, i64 8
  %22 = load i32, ptr %21, align 8
  tail call void @add_endpoint_table_data(ptr noundef %0, ptr noundef nonnull %14, i32 noundef 0, i1 noundef zeroext false, i32 noundef 1, i32 noundef %22, ptr noundef nonnull @ip_endpoint_dissector_info, i32 noundef 0)
  br label %23

23:                                               ; preds = %19, %15
  ret i32 1
}